; Function Attrs: mustprogress nofree norecurse nosync nounwind willreturn memory(argmem: readwrite) uwtable
define internal range(i32 0, 2) i32 @fold_simplify_numsub_xneg(ptr noundef captures(none) %0) #5 {
  %2 = getelementptr inbounds nuw i8, ptr %0, i64 212
  %3 = load i8, ptr %2, align 4, !tbaa !28
  %4 = and i8 %3, 64
  %.not = icmp eq i8 %4, 0
  br i1 %.not, label %5, label %10

5:                                                ; preds = %1
  %6 = getelementptr inbounds nuw i8, ptr %0, i64 208
  %7 = getelementptr inbounds nuw i8, ptr %0, i64 189
  store i8 41, ptr %7, align 1, !tbaa !28
  %8 = load i16, ptr %6, align 8, !tbaa !28
  %9 = getelementptr inbounds nuw i8, ptr %0, i64 186
  store i16 %8, ptr %9, align 2, !tbaa !28
  br label %10

10:                                               ; preds = %1, %5
  %.0 = phi i32 [ 1, %5 ], [ 0, %1 ]
  ret i32 %.0
}